; Function Attrs: nounwind uwtable
define zeroext i16 @wolfSSL_SNI_GetRequest(ptr noundef readonly captures(address_is_null) %0, i8 noundef zeroext %1, ptr noundef %2) local_unnamed_addr #0 {
  %.not = icmp eq ptr %2, null
  br i1 %.not, label %5, label %4

4:                                                ; preds = %3
  store ptr null, ptr %2, align 8, !tbaa !167
  br label %5

5:                                                ; preds = %4, %3
  %.not10 = icmp eq ptr %0, null
  br i1 %.not10, label %11, label %6

6:                                                ; preds = %5
  %7 = getelementptr inbounds nuw i8, ptr %0, i64 1224
  %8 = load ptr, ptr %7, align 8, !tbaa !165
  %.not11 = icmp eq ptr %8, null
  br i1 %.not11, label %11, label %9

9:                                                ; preds = %6
  %10 = tail call zeroext i16 @TLSX_SNI_GetRequest(ptr noundef nonnull %8, i8 noundef zeroext %1, ptr noundef %2, i8 noundef zeroext 0) #22
  br label %11

11:                                               ; preds = %5, %6, %9
  %.0 = phi i16 [ %10, %9 ], [ 0, %6 ], [ 0, %5 ]
  ret i16 %.0
}